#include <math.h>
#include <stdio.h>
#include <stdlib.h>
#include <string.h>

int f(int i,int t)
{
	if(i<t)
	{return 0;}
	int b=1;
	int a;
	for(a=t;a<i;a++)
	{
		if(i%a==0)
		{b=b+f(i/a,a);}
	}
	return b;
}

int main()
{
	int n;
	scanf("%d",&n);
	int i=0;
	int d[100];
	do
	{
		scanf("%d",&d[i]);
		i++;
	}while(i<n);
	i=0;
	do
	{
		printf("%d\n",f(d[i],2));
		i++;
	}while(i<n);
	return 0;
}